target datalayout = "e-m:e-p270:32:32-p271:32:32-p272:64:64-i64:64-i128:128-f80:128-n8:16:32:64-S128"
target triple = "x86_64-pc-linux-gnu"

; Function Attrs: mustprogress nounwind uwtable
define noundef double @_ZN5draco27ComputeBinaryShannonEntropyEjj(i32 noundef %0, i32 noundef %1) #6 {
  %3 = alloca double, align 8
  %4 = alloca i32, align 4
  %5 = alloca i32, align 4
  %6 = alloca double, align 8
  %7 = alloca double, align 8
  store i32 %0, ptr %4, align 4, !tbaa !8
  store i32 %1, ptr %5, align 4, !tbaa !8
  %8 = load i32, ptr %4, align 4, !tbaa !8
  %9 = icmp eq i32 %8, 0
  br i1 %9, label %10, label %11

10:                                               ; preds = %2
  store double 0.000000e+00, ptr %3, align 8
  br label %36

11:                                               ; preds = %2
  %12 = load i32, ptr %5, align 4, !tbaa !8
  %13 = icmp eq i32 %12, 0
  br i1 %13, label %18, label %14

14:                                               ; preds = %11
  %15 = load i32, ptr %4, align 4, !tbaa !8
  %16 = load i32, ptr %5, align 4, !tbaa !8
  %17 = icmp eq i32 %15, %16
  br i1 %17, label %18, label %19

18:                                               ; preds = %14, %11
  store double 0.000000e+00, ptr %3, align 8
  br label %36

19:                                               ; preds = %14
  call void @llvm.lifetime.start.p0(i64 8, ptr %6) #3
  %20 = load i32, ptr %5, align 4, !tbaa !8
  %21 = uitofp i32 %20 to double
  %22 = load i32, ptr %4, align 4, !tbaa !8
  %23 = uitofp i32 %22 to double
  %24 = fdiv double %21, %23
  store double %24, ptr %6, align 8, !tbaa !12
  call void @llvm.lifetime.start.p0(i64 8, ptr %7) #3
  %25 = load double, ptr %6, align 8, !tbaa !12
  %26 = fsub double 1.000000e+00, %25
  store double %26, ptr %7, align 8, !tbaa !12
  %27 = load double, ptr %6, align 8, !tbaa !12
  %28 = load double, ptr %6, align 8, !tbaa !12
  %29 = call double @log2(double noundef %28) #3, !tbaa !8
  %30 = load double, ptr %7, align 8, !tbaa !12
  %31 = load double, ptr %7, align 8, !tbaa !12
  %32 = call double @log2(double noundef %31) #3, !tbaa !8
  %33 = fmul double %30, %32
  %34 = call double @llvm.fmuladd.f64(double %27, double %29, double %33)
  %35 = fneg double %34
  store double %35, ptr %3, align 8
  call void @llvm.lifetime.end.p0(i64 8, ptr %7) #3
  call void @llvm.lifetime.end.p0(i64 8, ptr %6) #3
  br label %36

36:                                               ; preds = %19, %18, %10
  %37 = load double, ptr %3, align 8
  ret double %37
}