; Function Attrs: mustprogress nofree nounwind willreturn memory(write) uwtable
define noundef double @_ZN5draco27ComputeBinaryShannonEntropyEjj(i32 noundef %0, i32 noundef %1) local_unnamed_addr #7 {
  %3 = icmp eq i32 %0, 0
  br i1 %3, label %17, label %4

4:                                                ; preds = %2
  %5 = icmp eq i32 %1, 0
  %6 = icmp eq i32 %0, %1
  %or.cond = or i1 %5, %6
  br i1 %or.cond, label %17, label %7

7:                                                ; preds = %4
  %8 = uitofp i32 %1 to double
  %9 = uitofp i32 %0 to double
  %10 = fdiv double %8, %9
  %11 = fsub double 1.000000e+00, %10
  %12 = tail call double @log2(double noundef %10) #20, !tbaa !3
  %13 = tail call double @log2(double noundef %11) #20, !tbaa !3
  %14 = fmul double %11, %13
  %15 = tail call double @llvm.fmuladd.f64(double %10, double %12, double %14)
  %16 = fneg double %15
  br label %17

17:                                               ; preds = %4, %2, %7
  %.0 = phi double [ %16, %7 ], [ 0.000000e+00, %2 ], [ 0.000000e+00, %4 ]
  ret double %.0
}